(dp0
Vglobalgoals
p1
(lp2
I9
asVshop
p3
(lp4
I16
aI19
asVcarbon footprint
p5
(lp6
I10
asVmany apps
p7
(lp8
I14
asVmoney
p9
(lp10
I16
asVglobal
p11
(lp12
I8
asVactions
p13
(lp14
I9
asVchat room
p15
(lp16
I7
asVpaper
p17
(lp18
I1
aI4
asVbooks
p19
(lp20
I21
asVrefillable water bottle
p21
(lp22
I16
asVyour right
p23
(lp24
I23
asVtouch
p25
(lp26
I8
asVyour kids
p27
(lp28
I22
asVyour car
p29
(lp30
I20
asS''
p31
(lp32
I18
asVsmart\u2014plan meals
p33
(lp34
I11
asVwomen\u2019s rights
p35
(lp36
I2
asVocean friendly seafood \u2019s
p37
(lp38
I13
asVgroup
p39
(lp40
I15
asVcup
p41
(lp42
I16
asVelectricity
p43
(lp44
I0
asVyour tv
p45
(lp46
I5
asVfarmer \u2019s market
p47
(lp48
I12
asVenvironment
p49
(lp50
I6
asVlist
p51
(lp52
I11
aI13
asVyour local and national authorities
p53
(lp54
I3
asVinteresting social media post
p55
(lp56
I2
asVfarmer
p57
(lp58
I12
asVfolks
p59
(lp60
I2
asVhealth
p61
(lp62
I22
asVfurniture
p63
(lp64
I21
asVthe planet
p65
(lp66
I3
asVyour support
p67
(lp68
I3
asVcoffee
p69
(lp70
I16
asVa cosy glow
p71
(lp72
I5
asVadvantage
p73
(lp74
I23
asVfood
p75
(lp76
I11
aI12
asVan interesting social media post
p77
(lp78
I2
asVpractice
p79
(lp80
I6
asVa handful
p81
(lp82
I18
asVa message board
p83
(lp84
I7
asVreusable totes
p85
(lp86
I17
asVa digital post
p87
(lp88
I4
asVkid
p89
(lp90
I22
asVshopping lists
p91
(lp92
I11
asVbit
p93
(lp94
I6
asVthe paris agreement
p95
(lp96
I3
asVbank
p97
(lp98
I1
asVreusable
p99
(lp100
I17
asVfewer toxic fumes
p101
(lp102
I20
asVcompanies
p103
(lp104
I6
asVshape
p105
(lp106
I12
asVperishable items
p107
(lp108
I11
asVitem
p109
(lp110
I11
asVcosy glow
p111
(lp112
I5
asVthat food
p113
(lp114
I11
asVyour family
p115
(lp116
I22
asVbuy
p117
(lp118
I11
asVbills
p119
(lp120
I1
asVmeal
p121
(lp122
I11
asVthe coffee shop
p123
(lp124
I16
asVclothes
p125
(lp126
I21
asVwhat you don\u2019t use
p127
(lp128
I21
asVharm
p129
(lp130
I3
asVright
p131
(lp132
I2
aI23
asVleaders
p133
(lp134
I23
asVpeople
p135
(lp136
I3
asVclimate change
p137
(lp138
I2
asVthe global goals
p139
(lp140
I8
aI9
asVparis
p141
(lp142
I3
asVthis one
p143
(lp144
I14
asVparis agreement
p145
(lp146
I3
asVcomputer
p147
(lp148
I0
aI5
asVthe farmer\u2019s market
p149
(lp150
I12
asVpower strip
p151
(lp152
I0
asVcarbon emissions
p153
(lp154
I10
asVcosy
p155
(lp156
I5
asVtrick
p157
(lp158
I11
asVinitiatives
p159
(lp160
I3
asVnetwork
p161
(lp162
I2
aI9
asVtote
p163
(lp164
I17
asVbag
p165
(lp166
I17
asVpublic transport
p167
(lp168
I15
asVcomputer screen
p169
(lp170
I5
asVpaper bank statements
p171
(lp172
I1
asVyour takeout
p173
(lp174
I18
asVresearch
p175
(lp176
I6
asVbusiness
p177
(lp178
I13
asVlights
p179
(lp180
I5
asVyour shopping list
p181
(lp182
I13
asVsocial networks
p183
(lp184
I9
asVa notebook
p185
(lp186
I4
asVyour network
p187
(lp188
I2
asVthat don\u2019t harm
p189
(lp190
I3
asVleader
p191
(lp192
I23
asVonline bullies
p193
(lp194
I7
asVa restaurant
p195
(lp196
I13
asVclimate neutral
p197
(lp198
I10
asVimpulse buys
p199
(lp200
I11
asVyour bills
p201
(lp202
I1
asVright\u201d.
p203
(lp204
I12
asVbully
p205
(lp206
I7
asVpower
p207
(lp208
I0
asVlocal news
p209
(lp210
I8
asVmarketing
p211
(lp212
I11
asVscreen
p213
(lp214
I5
asVhandful
p215
(lp216
I18
asVagreement
p217
(lp218
I3
asVwater
p219
(lp220
I16
asVmarket
p221
(lp222
I12
asVyour carbon footprint
p223
(lp224
I10
asVa chat room
p225
(lp226
I7
asVyour local news
p227
(lp228
I8
asVnews
p229
(lp230
I8
asVpost
p231
(lp232
I2
aI4
asVdon\u2019t harm
p233
(lp234
I3
asVkids
p235
(lp236
I22
asVchange
p237
(lp238
I2
asVclimate
p239
(lp240
I2
aI10
asVcoffee shop
p241
(lp242
I16
asVother lights
p243
(lp244
I5
asVbig group
p245
(lp246
I15
asVrestaurant
p247
(lp248
I13
asVfruit
p249
(lp250
I12
asVcountry
p251
(lp252
I3
aI23
asVyour own reusable totes
p253
(lp254
I17
asVa well-tuned car
p255
(lp256
I20
asVmore food
p257
(lp258
I11
asVtv
p259
(lp260
I5
asVounce
p261
(lp262
I11
asVsustainable seafood
p263
(lp264
I13
aI14
asVaction
p265
(lp266
I9
asVvegetables
p267
(lp268
I12
asVshopping list
p269
(lp270
I13
asVwomen \u2019s rights
p271
(lp272
I2
asVfamily
p273
(lp274
I22
asVhashtag globalgoals
p275
(lp276
I9
asVapps
p277
(lp278
I14
asVcommunity
p279
(lp280
I23
asVone
p281
(lp282
I14
asVfootprint
p283
(lp284
I10
asVcolor
p285
(lp286
I12
asVthe plastic bag
p287
(lp288
I17
asVappliances
p289
(lp290
I0
asVstrip
p291
(lp292
I0
asVyour carbon emissions
p293
(lp294
I10
asVmessage
p295
(lp296
I7
asVthe paper
p297
(lp298
I4
asVsize
p299
(lp300
I12
asVsocial media
p301
(lp302
I8
asVuse
p303
(lp304
I0
aI21
asVcar trips
p305
(lp306
I15
asVsupport
p307
(lp308
I3
asVsecond-hand shops
p309
(lp310
I19
asVyour actions
p311
(lp312
I9
asVfewer napkins
p313
(lp314
I18
asVonline research
p315
(lp316
I6
asVplastic bag
p317
(lp318
I17
asVa big group
p319
(lp320
I15
asVmessage board
p321
(lp322
I7
asVdon\u2019t
p323
(lp324
I3
aI11
aI21
asVstatement
p325
(lp326
I1
asVforest destruction
p327
(lp328
I1
asVcoffee cup
p329
(lp330
I16
asVdestruction
p331
(lp332
I1
asVboard
p333
(lp334
I7
asVsecond hand shops
p335
(lp336
I19
asVmedium
p337
(lp338
I2
aI8
asVshopping
p339
(lp340
I11
aI13
asVtheir size
p341
(lp342
I12
asVa bit
p343
(lp344
I6
asVemission
p345
(lp346
I10
asVdon\u2019t use
p347
(lp348
I21
asVneutral
p349
(lp350
I10
asVa well tuned car
p351
(lp352
I20
asVgoals
p353
(lp354
I8
asVimpulse
p355
(lp356
I11
asVhashtag
p357
(lp358
I9
asVmarketing tricks
p359
(lp360
I11
asVcharity
p361
(lp362
I21
asVwaste
p363
(lp364
I12
aI16
asVsustainable practices
p365
(lp366
I6
asVroom
p367
(lp368
I7
asVfunny fruit\u2014many fruits
p369
(lp370
I12
asVpurchase climate credit
p371
(lp372
I10
asVcar
p373
(lp374
I15
aI20
asVbill
p375
(lp376
I1
asVplanet
p377
(lp378
I3
asVthe leaders
p379
(lp380
I23
asVnapkins
p381
(lp382
I18
asVfavorite businesses
p383
(lp384
I13
asVthat ocean-friendly seafood\u2019s
p385
(lp386
I13
asVtransport
p387
(lp388
I15
asVwhat
p389
(lp390
I14
aI18
aI19
aI21
asVjust what
p391
(lp392
I18
asVlocal charities
p393
(lp394
I21
asVfume
p395
(lp396
I20
asVa power strip
p397
(lp398
I0
asVyour gently used clothes
p399
(lp400
I21
asVgently used clothes
p401
(lp402
I21
asVa refillable water bottle
p403
(lp404
I16
asVwoman
p405
(lp406
I2
asVsomething
p407
(lp408
I4
asVchat
p409
(lp410
I7
asV\u2019
p411
(lp412
I13
asVcarbon
p413
(lp414
I10
asVyour country
p415
(lp416
I3
aI23
asVharassment
p417
(lp418
I7
asVtakeout
p419
(lp420
I18
asVyour favorite businesses
p421
(lp422
I13
asVgoal
p423
(lp424
I9
asVcredit
p425
(lp426
I10
asVglobal goals
p427
(lp428
I8
aI9
asVthe car trips
p429
(lp430
I15
asVtrip
p431
(lp432
I15
asVthe lights
p433
(lp434
I5
asVlocal national authorities
p435
(lp436
I3
asVforest
p437
(lp438
I1
asVonline
p439
(lp440
I7
asVpublic health
p441
(lp442
I22
asVthese perfectly good funny fruit
p443
(lp444
I12
asVyour computer
p445
(lp446
I0
asV#
p447
(lp448
I9
asVhand
p449
(lp450
I19
asVthe hashtag #globalgoals
p451
(lp452
I9
asVnotebook
p453
(lp454
I4
asVauthorities
p455
(lp456
I3
asVthe environment
p457
(lp458
I6
asVtune
p459
(lp460
I20
asVglow
p461
(lp462
I5
asVpurchase
p463
(lp464
I10
asVdigital post
p465
(lp466
I4
asVmobile
p467
(lp468
I1
asVlight
p469
(lp470
I5
asVseafood
p471
(lp472
I13
aI14
asVnapkin
p473
(lp474
I18
asVdisease
p475
(lp476
I22
asVocean
p477
(lp478
I13
asVyour own bag
p479
(lp480
I17
asVbottle
p481
(lp482
I16
asVperfectly good funny fruit
p483
(lp484
I12
asVlocal community
p485
(lp486
I23
as.