(dp0
Vglobalgoals
p1
(lp2
I9
asVshop
p3
(lp4
I11
aI14
aI16
aI17
aI19
asVratify
p5
(lp6
I3
asVmoney
p7
(lp8
I16
asVglobal
p9
(lp10
I8
asVcharities
p11
(lp12
I21
asVactions
p13
(lp14
I9
asVtotes
p15
(lp16
I17
asVbring
p17
(lp18
I17
asVshape
p19
(lp20
I12
asVpaper
p21
(lp22
I1
aI4
asVincluding
p23
(lp24
I0
asVtouch
p25
(lp26
I8
asVfollow
p27
(lp28
I8
asVnetworks
p29
(lp30
I9
asVconsume
p31
(lp32
I14
asVelect
p33
(lp34
I23
asVleader
p35
(lp36
I23
asVcut
p37
(lp38
I16
asVgroup
p39
(lp40
I15
asVcalculate
p41
(lp42
I10
asVcup
p43
(lp44
I16
asVelectricity
p45
(lp46
I0
asVfruit
p47
(lp48
I12
asVenvironment
p49
(lp50
I6
asVbike
p51
(lp52
I15
asVboard
p53
(lp54
I7
asVfarmer
p55
(lp56
I12
asVfolks
p57
(lp58
I2
asVsave
p59
(lp60
I0
aI15
aI16
asVmight
p61
(lp62
I12
asVfurniture
p63
(lp64
I21
asVachieve
p65
(lp66
I9
asVtake
p67
(lp68
I15
aI18
aI23
asVdo
p69
(lp70
I6
aI13
asVcoffee
p71
(lp72
I16
asVwoman
p73
(lp74
I2
asVadvantage
p75
(lp76
I23
asVget
p77
(lp78
I15
asVfood
p79
(lp80
I11
aI12
asVpractice
p81
(lp82
I6
asVstop
p83
(lp84
I1
asVhasn\u2019t
p85
(lp86
I3
asVknow
p87
(lp88
I6
aI13
asVkid
p89
(lp90
I22
asVreport
p91
(lp92
I7
asVusing
p93
(lp94
I9
asVbit
p95
(lp96
I6
asVwalk
p97
(lp98
I15
asVbank
p99
(lp100
I1
asVreusable
p101
(lp102
I17
asVdonate
p103
(lp104
I21
asVprotect
p105
(lp106
I22
asVfumes
p107
(lp108
I20
asVbooks
p109
(lp110
I21
asVcompanies
p111
(lp112
I6
asVtuned
p113
(lp114
I20
asVdiscarded
p115
(lp116
I11
asVitem
p117
(lp118
I11
asVbusinesses
p119
(lp120
I13
asVbills
p121
(lp122
I1
asVmeal
p123
(lp124
I11
asVclothes
p125
(lp126
I21
asVharm
p127
(lp128
I3
aI6
asVright
p129
(lp130
I2
aI23
asVleaders
p131
(lp132
I23
asVpeople
p133
(lp134
I3
asVlist
p135
(lp136
I11
aI13
asVtote
p137
(lp138
I17
asVsign
p139
(lp140
I3
asVgo
p141
(lp142
I12
aI13
asVsee
p143
(lp144
I2
aI4
aI19
asVcomputer
p145
(lp146
I0
aI5
asVpass
p147
(lp148
I17
asVturning
p149
(lp150
I0
asVharassment
p151
(lp152
I7
asVfolk
p153
(lp154
I2
asVtrick
p155
(lp156
I11
asVinitiatives
p157
(lp158
I3
asVnetwork
p159
(lp160
I2
aI9
asVlead
p161
(lp162
I11
asVbag
p163
(lp164
I17
asVavoid
p165
(lp166
I11
asVshops
p167
(lp168
I19
asVresearch
p169
(lp170
I6
asVbusiness
p171
(lp172
I13
asVlights
p173
(lp174
I5
asVhealth
p175
(lp176
I22
asVprovides
p177
(lp178
I5
asVprint
p179
(lp180
I4
asVgot
p181
(lp182
I15
asVsize
p183
(lp184
I12
asVsuccumb
p185
(lp186
I11
asVnotice
p187
(lp188
I7
asVhandful
p189
(lp190
I18
asVjot
p191
(lp192
I4
asVbully
p193
(lp194
I7
asVpower
p195
(lp196
I0
asVcredit
p197
(lp198
I10
asVmarketing
p199
(lp200
I11
asVscreen
p201
(lp202
I5
asVfruits
p203
(lp204
I12
asVagreement
p205
(lp206
I3
asVwater
p207
(lp208
I16
asVspare
p209
(lp210
I4
asVoffset
p211
(lp212
I10
asVask
p213
(lp214
I3
aI13
asVnews
p215
(lp216
I8
asVpost
p217
(lp218
I2
aI4
asVhand
p219
(lp220
I19
asVthrow
p221
(lp222
I12
asVchange
p223
(lp224
I2
asVplug
p225
(lp226
I0
asVclimate
p227
(lp228
I2
aI10
asVengage
p229
(lp230
I3
asVbuys
p231
(lp232
I11
asVrestaurant
p233
(lp234
I13
asVcountry
p235
(lp236
I3
aI23
asVtrips
p237
(lp238
I15
asVtakeout
p239
(lp240
I18
asVparis
p241
(lp242
I3
asVounce
p243
(lp244
I11
asVaction
p245
(lp246
I9
asVdiscard
p247
(lp248
I11
asVvegetables
p249
(lp250
I12
asVstatements
p251
(lp252
I1
asVutilizes
p253
(lp254
I12
asVfamily
p255
(lp256
I22
asVcolor
p257
(lp258
I12
asVbullies
p259
(lp260
I7
asVcommunity
p261
(lp262
I23
asVone
p263
(lp264
I14
asVrepurpose
p265
(lp266
I19
asVfootprint
p267
(lp268
I10
asVinitiative
p269
(lp270
I3
asVappliances
p271
(lp272
I0
asVstrip
p273
(lp274
I0
asVcarry
p275
(lp276
I17
asVmessage
p277
(lp278
I7
asVmarket
p279
(lp280
I12
asVspeak
p281
(lp282
I3
asVuse
p283
(lp284
I0
aI9
aI11
aI16
aI21
asVright\u201d.
p285
(lp286
I12
asVordering
p287
(lp288
I13
asVsupport
p289
(lp290
I3
asVapps
p291
(lp292
I14
asVstart
p293
(lp294
I17
asVdon\u2019t
p295
(lp296
I3
aI5
aI11
aI18
aI21
asVstatement
p297
(lp298
I1
asVtv
p299
(lp300
I5
asVdestruction
p301
(lp302
I1
asVtell
p303
(lp304
I9
aI14
asVthrown
p305
(lp306
I12
asVlife
p307
(lp308
I21
asVmedium
p309
(lp310
I2
aI8
asVshopping
p311
(lp312
I11
aI13
asVcompany
p313
(lp314
I6
asVserve
p315
(lp316
I13
asVemission
p317
(lp318
I10
asVlists
p319
(lp320
I11
asVflag
p321
(lp322
I7
asVcarrying
p323
(lp324
I17
asVgoals
p325
(lp326
I8
aI9
asVimpulse
p327
(lp328
I11
asVhashtag
p329
(lp330
I9
asVeat
p331
(lp332
I18
asVbuying
p333
(lp334
I12
asVwomen
p335
(lp336
I2
asVinclude
p337
(lp338
I0
asVroom
p339
(lp340
I7
asVrights
p341
(lp342
I2
asVcar
p343
(lp344
I15
aI20
asVbill
p345
(lp346
I1
asVappliance
p347
(lp348
I0
asVplanet
p349
(lp350
I3
asVnapkins
p351
(lp352
I18
asVemissions
p353
(lp354
I10
asVitems
p355
(lp356
I11
asVaid
p357
(lp358
I22
asV\u2019s
p359
(lp360
I13
asVvoice
p361
(lp362
I3
asVseafood
p363
(lp364
I13
aI14
asVtransport
p365
(lp366
I15
asVfume
p367
(lp368
I20
asVgive
p369
(lp370
I21
asVshare
p371
(lp372
I2
asVdisease
p373
(lp374
I22
asV\u2019
p375
(lp376
I13
asVbuy
p377
(lp378
I6
aI11
aI12
asVsomething
p379
(lp380
I4
asVchat
p381
(lp382
I7
asVaids
p383
(lp384
I22
asVneed
p385
(lp386
I1
aI4
aI5
aI11
aI18
asVcarbon
p387
(lp388
I10
asVtrip
p389
(lp390
I15
asVlet
p391
(lp392
I13
asVgoal
p393
(lp394
I9
asVturn
p395
(lp396
I0
aI5
asVprovide
p397
(lp398
I5
asVpay
p399
(lp400
I1
asVkids
p401
(lp402
I22
asVutilize
p403
(lp404
I12
asVnote
p405
(lp406
I4
asVmaintain
p407
(lp408
I20
asVforest
p409
(lp410
I1
asVonline
p411
(lp412
I7
asVvegetable
p413
(lp414
I12
asVbrand
p415
(lp416
I19
asVvintage
p417
(lp418
I19
asVused
p419
(lp420
I21
asVvaccinate
p421
(lp422
I22
asVbook
p423
(lp424
I21
asVmay
p425
(lp426
I11
aI12
asVplugging
p427
(lp428
I0
asVcosy
p429
(lp430
I5
asVstay
p431
(lp432
I8
asVnotebook
p433
(lp434
I4
asVauthorities
p435
(lp436
I3
asVwaste
p437
(lp438
I12
aI16
asVmeals
p439
(lp440
I11
asVtune
p441
(lp442
I20
asVglow
p443
(lp444
I5
asVpurchase
p445
(lp446
I10
asVprotecting
p447
(lp448
I22
asVremember
p449
(lp450
I4
asVemit
p451
(lp452
I20
asVmobile
p453
(lp454
I1
asVlight
p455
(lp456
I5
asVtricks
p457
(lp458
I11
asVnapkin
p459
(lp460
I18
asVneutral
p461
(lp462
I10
asVocean
p463
(lp464
I13
asVperson
p465
(lp466
I7
asVcharity
p467
(lp468
I21
asVpractices
p469
(lp470
I6
asVbottle
p471
(lp472
I16
asVmedia
p473
(lp474
I2
aI8
asVorder
p475
(lp476
I13
as.